#include <math.h>
#include <stdio.h>
#include <stdlib.h>
#include <string.h>

int main()
{
	char a[100]={0},b[100]={0},t;
	int i,j,l;
	scanf("%s",a);
	scanf("%s",b);
	if (strlen(a)!=strlen(b)) 
		printf("NO");
	else 
		{
			l=strlen(a);
			for (i=0;i<l;i++)
				for (j=i;j<l;j++)
					if (a[i]==b[j])
					{
						t=b[i];
						b[i]=b[j];
						b[j]=t;
					}
			if (strcmp(a,b)==0) printf("YES");
			else printf("NO");
		}
	return 0;
}