; ModuleID = 'source-C-CXX/35/776.c'
source_filename = "source-C-CXX/35/776.c"
target datalayout = "e-m:e-p270:32:32-p271:32:32-p272:64:64-i64:64-f80:128-n8:16:32:64-S128"
target triple = "x86_64-pc-linux-gnu"

@.str = private unnamed_addr constant [3 x i8] c"%s\00", align 1
@.str.1 = private unnamed_addr constant [3 x i8] c"NO\00", align 1
@.str.2 = private unnamed_addr constant [4 x i8] c"YES\00", align 1

; Function Attrs: nofree nounwind sspstrong uwtable
define dso_local i32 @main() local_unnamed_addr #0 {
  %1 = alloca [100 x i8], align 16
  %2 = alloca [100 x i8], align 16
  %3 = getelementptr inbounds [100 x i8], [100 x i8]* %1, i64 0, i64 0
  call void @llvm.lifetime.start.p0i8(i64 100, i8* nonnull %3) #5
  call void @llvm.memset.p0i8.i64(i8* noundef nonnull align 16 dereferenceable(100) %3, i8 0, i64 100, i1 false)
  %4 = getelementptr inbounds [100 x i8], [100 x i8]* %2, i64 0, i64 0
  call void @llvm.lifetime.start.p0i8(i64 100, i8* nonnull %4) #5
  call void @llvm.memset.p0i8.i64(i8* noundef nonnull align 16 dereferenceable(100) %4, i8 0, i64 100, i1 false)
  %5 = call i32 (i8*, ...) @__isoc99_scanf(i8* getelementptr inbounds ([3 x i8], [3 x i8]* @.str, i64 0, i64 0), i8* nonnull %3)
  %6 = call i32 (i8*, ...) @__isoc99_scanf(i8* getelementptr inbounds ([3 x i8], [3 x i8]* @.str, i64 0, i64 0), i8* nonnull %4)
  %7 = call i64 @strlen(i8* noundef nonnull %3) #6
  %8 = call i64 @strlen(i8* noundef nonnull %4) #6
  %9 = icmp eq i64 %7, %8
  br i1 %9, label %10, label %51

10:                                               ; preds = %0
  %11 = trunc i64 %7 to i32
  %12 = icmp sgt i32 %11, 0
  br i1 %12, label %13, label %47

13:                                               ; preds = %10
  %14 = and i64 %7, 4294967295
  br label %15

15:                                               ; preds = %44, %13
  %16 = phi i64 [ 0, %13 ], [ %45, %44 ]
  %17 = sub i64 %7, %16
  %18 = add nuw i64 %16, 1
  %19 = getelementptr inbounds [100 x i8], [100 x i8]* %2, i64 0, i64 %16
  %20 = getelementptr inbounds [100 x i8], [100 x i8]* %1, i64 0, i64 %16
  %21 = load i8, i8* %20, align 1, !tbaa !5
  %22 = and i64 %17, 1
  %23 = icmp eq i64 %22, 0
  br i1 %23, label %29, label %24

24:                                               ; preds = %15
  %25 = getelementptr inbounds [100 x i8], [100 x i8]* %2, i64 0, i64 %16
  %26 = load i8, i8* %25, align 1, !tbaa !5
  %27 = icmp eq i8 %21, %26
  %28 = add nuw nsw i64 %16, 1
  br label %29

29:                                               ; preds = %24, %15
  %30 = phi i64 [ %28, %24 ], [ %16, %15 ]
  %31 = icmp eq i64 %14, %18
  br i1 %31, label %44, label %32

32:                                               ; preds = %29, %56
  %33 = phi i64 [ %57, %56 ], [ %30, %29 ]
  %34 = getelementptr inbounds [100 x i8], [100 x i8]* %2, i64 0, i64 %33
  %35 = load i8, i8* %34, align 1, !tbaa !5
  %36 = icmp eq i8 %21, %35
  br i1 %36, label %37, label %39

37:                                               ; preds = %32
  %38 = load i8, i8* %19, align 1, !tbaa !5
  store i8 %21, i8* %19, align 1, !tbaa !5
  store i8 %38, i8* %34, align 1, !tbaa !5
  br label %39

39:                                               ; preds = %32, %37
  %40 = add nuw nsw i64 %33, 1
  %41 = getelementptr inbounds [100 x i8], [100 x i8]* %2, i64 0, i64 %40
  %42 = load i8, i8* %41, align 1, !tbaa !5
  %43 = icmp eq i8 %21, %42
  br i1 %43, label %54, label %56

44:                                               ; preds = %56, %29
  %45 = add nuw nsw i64 %16, 1
  %46 = icmp eq i64 %45, %14
  br i1 %46, label %47, label %15, !llvm.loop !8

47:                                               ; preds = %44, %10
  %48 = call i32 @strcmp(i8* noundef nonnull %3, i8* noundef nonnull %4) #6
  %49 = icmp eq i32 %48, 0
  %50 = select i1 %49, i8* getelementptr inbounds ([4 x i8], [4 x i8]* @.str.2, i64 0, i64 0), i8* getelementptr inbounds ([3 x i8], [3 x i8]* @.str.1, i64 0, i64 0)
  br label %51

51:                                               ; preds = %47, %0
  %52 = phi i8* [ getelementptr inbounds ([3 x i8], [3 x i8]* @.str.1, i64 0, i64 0), %0 ], [ %50, %47 ]
  %53 = call i32 (i8*, ...) @printf(i8* nonnull dereferenceable(1) %52)
  call void @llvm.lifetime.end.p0i8(i64 100, i8* nonnull %4) #5
  call void @llvm.lifetime.end.p0i8(i64 100, i8* nonnull %3) #5
  ret i32 0

54:                                               ; preds = %39
  %55 = load i8, i8* %19, align 1, !tbaa !5
  store i8 %21, i8* %19, align 1, !tbaa !5
  store i8 %55, i8* %41, align 1, !tbaa !5
  br label %56

56:                                               ; preds = %54, %39
  %57 = add nuw nsw i64 %33, 2
  %58 = icmp eq i64 %57, %14
  br i1 %58, label %44, label %32, !llvm.loop !10
}

; Function Attrs: argmemonly mustprogress nofree nosync nounwind willreturn
declare void @llvm.lifetime.start.p0i8(i64 immarg, i8* nocapture) #1

; Function Attrs: argmemonly mustprogress nofree nounwind willreturn writeonly
declare void @llvm.memset.p0i8.i64(i8* nocapture writeonly, i8, i64, i1 immarg) #2

; Function Attrs: nofree nounwind
declare noundef i32 @__isoc99_scanf(i8* nocapture noundef readonly, ...) local_unnamed_addr #3

; Function Attrs: argmemonly mustprogress nofree nounwind readonly willreturn
declare i64 @strlen(i8* nocapture) local_unnamed_addr #4

; Function Attrs: nofree nounwind
declare noundef i32 @printf(i8* nocapture noundef readonly, ...) local_unnamed_addr #3

; Function Attrs: argmemonly mustprogress nofree nounwind readonly willreturn
declare i32 @strcmp(i8* nocapture, i8* nocapture) local_unnamed_addr #4

; Function Attrs: argmemonly mustprogress nofree nosync nounwind willreturn
declare void @llvm.lifetime.end.p0i8(i64 immarg, i8* nocapture) #1


!llvm.module.flags = !{!0, !1, !2, !3}
!llvm.ident = !{!4}

!0 = !{i32 1, !"wchar_size", i32 4}
!1 = !{i32 7, !"PIC Level", i32 2}
!2 = !{i32 7, !"PIE Level", i32 2}
!3 = !{i32 7, !"uwtable", i32 1}
!4 = !{!"clang version 13.0.0"}
!5 = !{!6, !6, i64 0}
!6 = !{!"omnipotent char", !7, i64 0}
!7 = !{!"Simple C/C++ TBAA"}
!8 = distinct !{!8, !9}
!9 = !{!"llvm.loop.mustprogress"}
!10 = distinct !{!10, !9}
